; Function Attrs: null_pointer_is_valid sspstrong uwtable
define internal i32 @dissect_enip_udp(ptr noundef %0, ptr noundef %1, ptr noundef %2, ptr noundef readnone captures(none) %3) #0 {
  %5 = tail call i32 @tvb_captured_length(ptr noundef %0)
  %6 = icmp ult i32 %5, 4
  br i1 %6, label %9, label %7

7:                                                ; preds = %4
  %8 = tail call i32 @dissect_enip_pdu(ptr noundef %0, ptr noundef %1, ptr noundef %2, ptr poison)
  br label %9

9:                                                ; preds = %4, %7
  %.0 = phi i32 [ %8, %7 ], [ 0, %4 ]
  ret i32 %.0
}